target datalayout = "e-m:e-p270:32:32-p271:32:32-p272:64:64-i64:64-i128:128-f80:128-n8:16:32:64-S128"
target triple = "x86_64-pc-linux-gnu"

%struct.ossl_call_keylog_cb_args = type { i64, ptr }

@ID_callback_state = internal global i64 0, align 8
@ossl_ssl_ex_ptr_idx = internal global i32 0, align 4
@dOSSL = external global i64, align 8
@stderr = external global ptr, align 8
@.str.211 = private unnamed_addr constant [13 x i8] c"OSSL_DEBUG: \00", align 1
@.str.213 = private unnamed_addr constant [10 x i8] c" [%s:%d]\0A\00", align 1
@.str.214 = private unnamed_addr constant [32 x i8] c"../../../ext/openssl/ossl_ssl.c\00", align 1
@.str.235 = private unnamed_addr constant [28 x i8] c"SSL keylog callback entered\00", align 1

; Function Attrs: inlinehint nounwind sspstrong willreturn memory(none) uwtable
define internal i64 @RB_INT2FIX(i64 noundef %0) #9 {
  %2 = alloca i64, align 8
  %3 = alloca i64, align 8
  %4 = alloca i64, align 8
  %5 = alloca i64, align 8
  %6 = alloca i64, align 8
  %7 = alloca i64, align 8
  store i64 %0, ptr %2, align 8, !tbaa !14
  call void @llvm.lifetime.start.p0(i64 8, ptr %3) #20
  %8 = load i64, ptr %2, align 8, !tbaa !14
  store i64 %8, ptr %3, align 8, !tbaa !14
  call void @llvm.lifetime.start.p0(i64 8, ptr %4) #20
  %9 = load i64, ptr %3, align 8, !tbaa !14
  %10 = shl i64 %9, 1
  %11 = add i64 %10, 1
  store i64 %11, ptr %4, align 8, !tbaa !14
  call void @llvm.lifetime.start.p0(i64 8, ptr %5) #20
  %12 = load i64, ptr %4, align 8, !tbaa !14
  store i64 %12, ptr %5, align 8, !tbaa !14
  call void @llvm.lifetime.start.p0(i64 8, ptr %6) #20
  %13 = load i64, ptr %5, align 8, !tbaa !14
  store i64 %13, ptr %6, align 8, !tbaa !14
  call void @llvm.lifetime.start.p0(i64 8, ptr %7) #20
  %14 = load i64, ptr %6, align 8, !tbaa !14
  store i64 %14, ptr %7, align 8, !tbaa !14
  %15 = load i64, ptr %7, align 8, !tbaa !14
  call void @llvm.lifetime.end.p0(i64 8, ptr %7) #20
  call void @llvm.lifetime.end.p0(i64 8, ptr %6) #20
  call void @llvm.lifetime.end.p0(i64 8, ptr %5) #20
  call void @llvm.lifetime.end.p0(i64 8, ptr %4) #20
  call void @llvm.lifetime.end.p0(i64 8, ptr %3) #20
  ret i64 %15
}

; Function Attrs: inlinehint nounwind sspstrong uwtable
define internal i64 @rb_int2num_inline(i32 noundef %0) #4 {
  %2 = alloca i64, align 8
  %3 = alloca i32, align 4
  store i32 %0, ptr %3, align 4, !tbaa !12
  %4 = load i32, ptr %3, align 4, !tbaa !12
  %5 = sext i32 %4 to i64
  %6 = icmp slt i64 %5, 4611686018427387904
  br i1 %6, label %7, label %15

7:                                                ; preds = %1
  %8 = load i32, ptr %3, align 4, !tbaa !12
  %9 = sext i32 %8 to i64
  %10 = icmp sge i64 %9, -4611686018427387904
  br i1 %10, label %11, label %15

11:                                               ; preds = %7
  %12 = load i32, ptr %3, align 4, !tbaa !12
  %13 = sext i32 %12 to i64
  %14 = call i64 @RB_INT2FIX(i64 noundef %13) #23
  store i64 %14, ptr %2, align 8
  br label %19

15:                                               ; preds = %7, %1
  %16 = load i32, ptr %3, align 4, !tbaa !12
  %17 = sext i32 %16 to i64
  %18 = call i64 @rb_int2big(i64 noundef %17)
  store i64 %18, ptr %2, align 8
  br label %19

19:                                               ; preds = %15, %11
  %20 = load i64, ptr %2, align 8
  ret i64 %20
}

; Function Attrs: nounwind sspstrong uwtable
define internal void @ossl_sslctx_keylog_cb(ptr noundef %0, ptr noundef %1) #0 {
  %3 = alloca ptr, align 8
  %4 = alloca ptr, align 8
  %5 = alloca i64, align 8
  %6 = alloca %struct.ossl_call_keylog_cb_args, align 8
  %7 = alloca i32, align 4
  store ptr %0, ptr %3, align 8, !tbaa !10
  store ptr %1, ptr %4, align 8, !tbaa !16
  call void @llvm.lifetime.start.p0(i64 8, ptr %5) #20
  call void @llvm.lifetime.start.p0(i64 16, ptr %6) #20
  call void @llvm.lifetime.start.p0(i64 4, ptr %7) #20
  store i32 0, ptr %7, align 4, !tbaa !12
  br label %8

8:                                                ; preds = %2
  %9 = load i64, ptr @dOSSL, align 8, !tbaa !14
  %10 = icmp eq i64 %9, 20
  br i1 %10, label %11, label %18

11:                                               ; preds = %8
  %12 = load ptr, ptr @stderr, align 8, !tbaa !41
  %13 = call i32 (ptr, i32, ptr, ...) @__fprintf_chk(ptr noundef %12, i32 noundef 1, ptr noundef @.str.211)
  %14 = load ptr, ptr @stderr, align 8, !tbaa !41
  %15 = call i32 (ptr, i32, ptr, ...) @__fprintf_chk(ptr noundef %14, i32 noundef 1, ptr noundef @.str.235)
  %16 = load ptr, ptr @stderr, align 8, !tbaa !41
  %17 = call i32 (ptr, i32, ptr, ...) @__fprintf_chk(ptr noundef %16, i32 noundef 1, ptr noundef @.str.213, ptr noundef @.str.214, i32 noundef 364)
  br label %18

18:                                               ; preds = %11, %8
  br label %19

19:                                               ; preds = %18
  br label %20

20:                                               ; preds = %19
  %21 = load ptr, ptr %3, align 8, !tbaa !10
  %22 = load i32, ptr @ossl_ssl_ex_ptr_idx, align 4, !tbaa !12
  %23 = call ptr @SSL_get_ex_data(ptr noundef %21, i32 noundef %22)
  %24 = ptrtoint ptr %23 to i64
  store i64 %24, ptr %5, align 8, !tbaa !14
  %25 = load i64, ptr %5, align 8, !tbaa !14
  %26 = getelementptr inbounds nuw %struct.ossl_call_keylog_cb_args, ptr %6, i32 0, i32 0
  store i64 %25, ptr %26, align 8, !tbaa !86
  %27 = load ptr, ptr %4, align 8, !tbaa !16
  %28 = getelementptr inbounds nuw %struct.ossl_call_keylog_cb_args, ptr %6, i32 0, i32 1
  store ptr %27, ptr %28, align 8, !tbaa !88
  %29 = ptrtoint ptr %6 to i64
  %30 = call i64 @rb_protect(ptr noundef @ossl_call_keylog_cb, i64 noundef %29, ptr noundef %7)
  %31 = load i32, ptr %7, align 4, !tbaa !12
  %32 = icmp ne i32 %31, 0
  br i1 %32, label %33, label %39

33:                                               ; preds = %20
  %34 = load i64, ptr %5, align 8, !tbaa !14
  %35 = load i64, ptr @ID_callback_state, align 8, !tbaa !14
  %36 = load i32, ptr %7, align 4, !tbaa !12
  %37 = call i64 @rb_int2num_inline(i32 noundef %36)
  %38 = call i64 @rb_ivar_set(i64 noundef %34, i64 noundef %35, i64 noundef %37)
  br label %39

39:                                               ; preds = %33, %20
  call void @llvm.lifetime.end.p0(i64 4, ptr %7) #20
  call void @llvm.lifetime.end.p0(i64 16, ptr %6) #20
  call void @llvm.lifetime.end.p0(i64 8, ptr %5) #20
  ret void
}