; Function Attrs: nounwind sspstrong uwtable
define internal void @ossl_sslctx_keylog_cb(ptr noundef %0, ptr noundef %1) #0 {
  %3 = alloca %struct.ossl_call_keylog_cb_args, align 8
  %4 = alloca i32, align 4
  call void @llvm.lifetime.start.p0(i64 16, ptr nonnull %3) #9
  call void @llvm.lifetime.start.p0(i64 4, ptr nonnull %4) #9
  store i32 0, ptr %4, align 4, !tbaa !6
  %5 = load i64, ptr @dOSSL, align 8, !tbaa !10
  %6 = icmp eq i64 %5, 20
  br i1 %6, label %7, label %14

7:                                                ; preds = %2
  %8 = load ptr, ptr @stderr, align 8, !tbaa !32
  %9 = tail call i32 (ptr, i32, ptr, ...) @__fprintf_chk(ptr noundef %8, i32 noundef 1, ptr noundef nonnull @.str.211) #9
  %10 = load ptr, ptr @stderr, align 8, !tbaa !32
  %11 = tail call i32 (ptr, i32, ptr, ...) @__fprintf_chk(ptr noundef %10, i32 noundef 1, ptr noundef nonnull @.str.235) #9
  %12 = load ptr, ptr @stderr, align 8, !tbaa !32
  %13 = tail call i32 (ptr, i32, ptr, ...) @__fprintf_chk(ptr noundef %12, i32 noundef 1, ptr noundef nonnull @.str.213, ptr noundef nonnull @.str.214, i32 noundef 364) #9
  br label %14

14:                                               ; preds = %7, %2
  %15 = load i32, ptr @ossl_ssl_ex_ptr_idx, align 4, !tbaa !6
  %16 = tail call ptr @SSL_get_ex_data(ptr noundef %0, i32 noundef %15) #9
  %17 = ptrtoint ptr %16 to i64
  store i64 %17, ptr %3, align 8, !tbaa !89
  %18 = getelementptr inbounds nuw i8, ptr %3, i64 8
  store ptr %1, ptr %18, align 8, !tbaa !91
  %19 = ptrtoint ptr %3 to i64
  %20 = call i64 @rb_protect(ptr noundef nonnull @ossl_call_keylog_cb, i64 noundef %19, ptr noundef nonnull %4) #9
  %21 = load i32, ptr %4, align 4, !tbaa !6
  %.not = icmp eq i32 %21, 0
  br i1 %.not, label %28, label %22

22:                                               ; preds = %14
  %23 = load i64, ptr @ID_callback_state, align 8, !tbaa !10
  %24 = sext i32 %21 to i64
  %25 = shl nsw i64 %24, 1
  %26 = or disjoint i64 %25, 1
  %27 = call i64 @rb_ivar_set(i64 noundef %17, i64 noundef %23, i64 noundef %26) #9
  br label %28

28:                                               ; preds = %22, %14
  call void @llvm.lifetime.end.p0(i64 4, ptr nonnull %4) #9
  call void @llvm.lifetime.end.p0(i64 16, ptr nonnull %3) #9
  ret void
}